target datalayout = "e-m:e-p270:32:32-p271:32:32-p272:64:64-i64:64-i128:128-f80:128-n8:16:32:64-S128"
target triple = "x86_64-pc-linux-gnu"

%"class.pxrInternal_v0_24__pxrReserved__::GfRange3f" = type { %"class.pxrInternal_v0_24__pxrReserved__::GfVec3f", %"class.pxrInternal_v0_24__pxrReserved__::GfVec3f" }
%"class.pxrInternal_v0_24__pxrReserved__::GfVec3f" = type { [3 x float] }

@.str.2 = private unnamed_addr constant [4 x i8] c"...\00", align 1

; Function Attrs: mustprogress nounwind uwtable
define linkonce_odr noundef nonnull align 4 dereferenceable(12) ptr @_ZNK32pxrInternal_v0_24__pxrReserved__9GfRange3f6GetMaxEv(ptr noundef nonnull align 4 dereferenceable(24) %0) #2 comdat align 2 {
  %2 = alloca ptr, align 8
  store ptr %0, ptr %2, align 8
  %3 = load ptr, ptr %2, align 8
  %4 = getelementptr inbounds nuw %"class.pxrInternal_v0_24__pxrReserved__::GfRange3f", ptr %3, i32 0, i32 1
  ret ptr %4
}

; Function Attrs: mustprogress nounwind uwtable
define linkonce_odr { <2 x float>, float } @_ZN32pxrInternal_v0_24__pxrReserved__17Gf_OstreamHelperPINS_7GfVec3fEEET_S2_(<2 x float> %0, float %1) #5 comdat {
  %3 = alloca %"class.pxrInternal_v0_24__pxrReserved__::GfVec3f", align 4
  %4 = alloca %"class.pxrInternal_v0_24__pxrReserved__::GfVec3f", align 4
  %5 = alloca { <2 x float>, float }, align 4
  %6 = alloca { <2 x float>, float }, align 8
  %7 = getelementptr inbounds nuw { <2 x float>, float }, ptr %5, i32 0, i32 0
  store <2 x float> %0, ptr %7, align 4
  %8 = getelementptr inbounds nuw { <2 x float>, float }, ptr %5, i32 0, i32 1
  store float %1, ptr %8, align 4
  call void @llvm.memcpy.p0.p0.i64(ptr align 4 %4, ptr align 4 %5, i64 12, i1 false)
  call void @llvm.memcpy.p0.p0.i64(ptr align 4 %3, ptr align 4 %4, i64 12, i1 false)
  %9 = getelementptr inbounds nuw %"class.pxrInternal_v0_24__pxrReserved__::GfVec3f", ptr %3, i32 0, i32 0
  call void @llvm.memcpy.p0.p0.i64(ptr align 8 %6, ptr align 4 %9, i64 12, i1 false)
  %10 = load { <2 x float>, float }, ptr %6, align 8
  ret { <2 x float>, float } %10
}

; Function Attrs: mustprogress nounwind uwtable
define linkonce_odr noundef nonnull align 4 dereferenceable(12) ptr @_ZNK32pxrInternal_v0_24__pxrReserved__9GfRange3f6GetMinEv(ptr noundef nonnull align 4 dereferenceable(24) %0) #2 comdat align 2 {
  %2 = alloca ptr, align 8
  store ptr %0, ptr %2, align 8
  %3 = load ptr, ptr %2, align 8
  %4 = getelementptr inbounds nuw %"class.pxrInternal_v0_24__pxrReserved__::GfRange3f", ptr %3, i32 0, i32 0
  ret ptr %4
}

; Function Attrs: mustprogress uwtable
define noundef nonnull align 8 dereferenceable(8) ptr @_ZN32pxrInternal_v0_24__pxrReserved__lsERSoRKNS_9GfRange3fE(ptr noundef nonnull align 8 dereferenceable(8) %0, ptr noundef nonnull align 4 dereferenceable(24) %1) #3 {
  %3 = alloca ptr, align 8
  %4 = alloca ptr, align 8
  %5 = alloca %"class.pxrInternal_v0_24__pxrReserved__::GfVec3f", align 4
  %6 = alloca %"class.pxrInternal_v0_24__pxrReserved__::GfVec3f", align 4
  %7 = alloca { <2 x float>, float }, align 4
  %8 = alloca { <2 x float>, float }, align 8
  %9 = alloca %"class.pxrInternal_v0_24__pxrReserved__::GfVec3f", align 4
  %10 = alloca %"class.pxrInternal_v0_24__pxrReserved__::GfVec3f", align 4
  %11 = alloca { <2 x float>, float }, align 4
  %12 = alloca { <2 x float>, float }, align 8
  store ptr %0, ptr %3, align 8
  store ptr %1, ptr %4, align 8
  %13 = load ptr, ptr %3, align 8
  %14 = call noundef nonnull align 8 dereferenceable(8) ptr @_ZStlsISt11char_traitsIcEERSt13basic_ostreamIcT_ES5_c(ptr noundef nonnull align 8 dereferenceable(8) %13, i8 noundef signext 91)
  %15 = load ptr, ptr %4, align 8
  %16 = call noundef nonnull align 4 dereferenceable(12) ptr @_ZNK32pxrInternal_v0_24__pxrReserved__9GfRange3f6GetMinEv(ptr noundef nonnull align 4 dereferenceable(24) %15)
  call void @llvm.memcpy.p0.p0.i64(ptr align 4 %6, ptr align 4 %16, i64 12, i1 false)
  call void @llvm.memcpy.p0.p0.i64(ptr align 4 %7, ptr align 4 %6, i64 12, i1 false)
  %17 = getelementptr inbounds nuw { <2 x float>, float }, ptr %7, i32 0, i32 0
  %18 = load <2 x float>, ptr %17, align 4
  %19 = getelementptr inbounds nuw { <2 x float>, float }, ptr %7, i32 0, i32 1
  %20 = load float, ptr %19, align 4
  %21 = call { <2 x float>, float } @_ZN32pxrInternal_v0_24__pxrReserved__17Gf_OstreamHelperPINS_7GfVec3fEEET_S2_(<2 x float> %18, float %20)
  %22 = getelementptr inbounds nuw %"class.pxrInternal_v0_24__pxrReserved__::GfVec3f", ptr %5, i32 0, i32 0
  store { <2 x float>, float } %21, ptr %8, align 8
  call void @llvm.memcpy.p0.p0.i64(ptr align 4 %22, ptr align 8 %8, i64 12, i1 false)
  %23 = call noundef nonnull align 8 dereferenceable(8) ptr @_ZN32pxrInternal_v0_24__pxrReserved__lsERSoRKNS_7GfVec3fE(ptr noundef nonnull align 8 dereferenceable(8) %14, ptr noundef nonnull align 4 dereferenceable(12) %5)
  %24 = call noundef nonnull align 8 dereferenceable(8) ptr @_ZStlsISt11char_traitsIcEERSt13basic_ostreamIcT_ES5_PKc(ptr noundef nonnull align 8 dereferenceable(8) %23, ptr noundef @.str.2)
  %25 = load ptr, ptr %4, align 8
  %26 = call noundef nonnull align 4 dereferenceable(12) ptr @_ZNK32pxrInternal_v0_24__pxrReserved__9GfRange3f6GetMaxEv(ptr noundef nonnull align 4 dereferenceable(24) %25)
  call void @llvm.memcpy.p0.p0.i64(ptr align 4 %10, ptr align 4 %26, i64 12, i1 false)
  call void @llvm.memcpy.p0.p0.i64(ptr align 4 %11, ptr align 4 %10, i64 12, i1 false)
  %27 = getelementptr inbounds nuw { <2 x float>, float }, ptr %11, i32 0, i32 0
  %28 = load <2 x float>, ptr %27, align 4
  %29 = getelementptr inbounds nuw { <2 x float>, float }, ptr %11, i32 0, i32 1
  %30 = load float, ptr %29, align 4
  %31 = call { <2 x float>, float } @_ZN32pxrInternal_v0_24__pxrReserved__17Gf_OstreamHelperPINS_7GfVec3fEEET_S2_(<2 x float> %28, float %30)
  %32 = getelementptr inbounds nuw %"class.pxrInternal_v0_24__pxrReserved__::GfVec3f", ptr %9, i32 0, i32 0
  store { <2 x float>, float } %31, ptr %12, align 8
  call void @llvm.memcpy.p0.p0.i64(ptr align 4 %32, ptr align 8 %12, i64 12, i1 false)
  %33 = call noundef nonnull align 8 dereferenceable(8) ptr @_ZN32pxrInternal_v0_24__pxrReserved__lsERSoRKNS_7GfVec3fE(ptr noundef nonnull align 8 dereferenceable(8) %24, ptr noundef nonnull align 4 dereferenceable(12) %9)
  %34 = call noundef nonnull align 8 dereferenceable(8) ptr @_ZStlsISt11char_traitsIcEERSt13basic_ostreamIcT_ES5_c(ptr noundef nonnull align 8 dereferenceable(8) %33, i8 noundef signext 93)
  ret ptr %34
}