; Function Attrs: mustprogress uwtable
define noundef nonnull align 8 dereferenceable(8) ptr @_ZN32pxrInternal_v0_24__pxrReserved__lsERSoRKNS_9GfRange3fE(ptr noundef nonnull align 8 dereferenceable(8) %0, ptr noundef nonnull readonly align 4 captures(none) dereferenceable(24) %1) local_unnamed_addr #1 {
  %3 = alloca %"class.pxrInternal_v0_24__pxrReserved__::GfVec3f", align 8
  %4 = alloca %"class.pxrInternal_v0_24__pxrReserved__::GfVec3f", align 8
  %5 = tail call noundef nonnull align 8 dereferenceable(8) ptr @_ZStlsISt11char_traitsIcEERSt13basic_ostreamIcT_ES5_c(ptr noundef nonnull align 8 dereferenceable(8) %0, i8 noundef signext 91)
  %.sroa.011.0.copyload = load <2 x float>, ptr %1, align 4
  %.sroa.212.0..sroa_idx = getelementptr inbounds nuw i8, ptr %1, i64 8
  %.sroa.212.0.copyload = load float, ptr %.sroa.212.0..sroa_idx, align 4
  store <2 x float> %.sroa.011.0.copyload, ptr %3, align 8
  %.sroa.28.0..sroa_idx = getelementptr inbounds nuw i8, ptr %3, i64 8
  store float %.sroa.212.0.copyload, ptr %.sroa.28.0..sroa_idx, align 8
  %6 = call noundef nonnull align 8 dereferenceable(8) ptr @_ZN32pxrInternal_v0_24__pxrReserved__lsERSoRKNS_7GfVec3fE(ptr noundef nonnull align 8 dereferenceable(8) %5, ptr noundef nonnull align 4 dereferenceable(12) %3)
  %7 = call noundef nonnull align 8 dereferenceable(8) ptr @_ZStlsISt11char_traitsIcEERSt13basic_ostreamIcT_ES5_PKc(ptr noundef nonnull align 8 dereferenceable(8) %6, ptr noundef nonnull @.str.2)
  %8 = getelementptr inbounds nuw i8, ptr %1, i64 12
  %.sroa.03.0.copyload = load <2 x float>, ptr %8, align 4
  %.sroa.24.0..sroa_idx = getelementptr inbounds nuw i8, ptr %1, i64 20
  %.sroa.24.0.copyload = load float, ptr %.sroa.24.0..sroa_idx, align 4
  store <2 x float> %.sroa.03.0.copyload, ptr %4, align 8
  %.sroa.2.0..sroa_idx = getelementptr inbounds nuw i8, ptr %4, i64 8
  store float %.sroa.24.0.copyload, ptr %.sroa.2.0..sroa_idx, align 8
  %9 = call noundef nonnull align 8 dereferenceable(8) ptr @_ZN32pxrInternal_v0_24__pxrReserved__lsERSoRKNS_7GfVec3fE(ptr noundef nonnull align 8 dereferenceable(8) %7, ptr noundef nonnull align 4 dereferenceable(12) %4)
  %10 = call noundef nonnull align 8 dereferenceable(8) ptr @_ZStlsISt11char_traitsIcEERSt13basic_ostreamIcT_ES5_c(ptr noundef nonnull align 8 dereferenceable(8) %9, i8 noundef signext 93)
  ret ptr %10
}